target datalayout = "e-m:e-p270:32:32-p271:32:32-p272:64:64-i64:64-i128:128-f80:128-n8:16:32:64-S128"
target triple = "x86_64-pc-linux-gnu"

%class.CryptData = type { [4 x %"struct.CryptData::KDF3CacheItem"], i32, [4 x i8], [4 x %"struct.CryptData::KDF5CacheItem"], i32, i32, %class.Rijndael, [256 x i32], [256 x i8], [4 x i32], [3 x i8], [4 x i16], [4 x i8] }
%"struct.CryptData::KDF3CacheItem" = type { %class.SecPassword, [8 x i8], [16 x i8], [16 x i8], i8, [7 x i8] }
%class.SecPassword = type <{ %"class.std::vector", i8, [7 x i8] }>
%"class.std::vector" = type { %"struct.std::_Vector_base" }
%"struct.std::_Vector_base" = type { %"struct.std::_Vector_base<wchar_t, std::allocator<wchar_t>>::_Vector_impl" }
%"struct.std::_Vector_base<wchar_t, std::allocator<wchar_t>>::_Vector_impl" = type { %"struct.std::_Vector_base<wchar_t, std::allocator<wchar_t>>::_Vector_impl_data" }
%"struct.std::_Vector_base<wchar_t, std::allocator<wchar_t>>::_Vector_impl_data" = type { ptr, ptr, ptr }
%"struct.CryptData::KDF5CacheItem" = type { %class.SecPassword, [16 x i8], [32 x i8], i32, [32 x i8], [32 x i8], [4 x i8] }
%class.Rijndael = type { i8, i32, [16 x i8], [15 x [4 x [4 x i8]]] }

; Function Attrs: mustprogress nounwind uwtable
define void @_ZN9CryptData6Swap20EPhS0_(ptr noundef nonnull align 8 dereferenceable(2516) %0, ptr noundef %1, ptr noundef %2) #0 align 2 {
  %4 = alloca ptr, align 8
  %5 = alloca ptr, align 8
  %6 = alloca ptr, align 8
  %7 = alloca i8, align 1
  store ptr %0, ptr %4, align 8
  store ptr %1, ptr %5, align 8
  store ptr %2, ptr %6, align 8
  %8 = load ptr, ptr %5, align 8
  %9 = load i8, ptr %8, align 1
  store i8 %9, ptr %7, align 1
  %10 = load ptr, ptr %6, align 8
  %11 = load i8, ptr %10, align 1
  %12 = load ptr, ptr %5, align 8
  store i8 %11, ptr %12, align 1
  %13 = load i8, ptr %7, align 1
  %14 = load ptr, ptr %6, align 8
  store i8 %13, ptr %14, align 1
  ret void
}

; Function Attrs: mustprogress uwtable
define void @_ZN9CryptData8SetKey20EPKc(ptr noundef nonnull align 8 dereferenceable(2516) %0, ptr noundef %1) #1 align 2 {
  %3 = alloca ptr, align 8
  %4 = alloca ptr, align 8
  %5 = alloca [512 x i8], align 16
  %6 = alloca i64, align 8
  %7 = alloca i32, align 4
  %8 = alloca i64, align 8
  %9 = alloca i32, align 4
  %10 = alloca i32, align 4
  %11 = alloca i32, align 4
  %12 = alloca i64, align 8
  %13 = alloca i64, align 8
  store ptr %0, ptr %3, align 8
  store ptr %1, ptr %4, align 8
  %14 = load ptr, ptr %3, align 8
  %15 = getelementptr inbounds %class.CryptData, ptr %14, i32 0, i32 7
  %16 = getelementptr inbounds [256 x i32], ptr %15, i64 0, i64 0
  call void @_Z9InitCRC32Pj(ptr noundef %16)
  %17 = getelementptr inbounds [512 x i8], ptr %5, i64 0, i64 0
  %18 = load ptr, ptr %4, align 8
  call void @_Z8strncpyzPcPKcm(ptr noundef %17, ptr noundef %18, i64 noundef 512)
  %19 = getelementptr inbounds [512 x i8], ptr %5, i64 0, i64 0
  %20 = call i64 @strlen(ptr noundef %19) #12
  store i64 %20, ptr %6, align 8
  %21 = getelementptr inbounds %class.CryptData, ptr %14, i32 0, i32 9
  %22 = getelementptr inbounds [4 x i32], ptr %21, i64 0, i64 0
  store i32 -744245127, ptr %22, align 8
  %23 = getelementptr inbounds %class.CryptData, ptr %14, i32 0, i32 9
  %24 = getelementptr inbounds [4 x i32], ptr %23, i64 0, i64 1
  store i32 1064112887, ptr %24, align 4
  %25 = getelementptr inbounds %class.CryptData, ptr %14, i32 0, i32 9
  %26 = getelementptr inbounds [4 x i32], ptr %25, i64 0, i64 2
  store i32 1964352053, ptr %26, align 8
  %27 = getelementptr inbounds %class.CryptData, ptr %14, i32 0, i32 9
  %28 = getelementptr inbounds [4 x i32], ptr %27, i64 0, i64 3
  store i32 -1528303325, ptr %28, align 4
  %29 = getelementptr inbounds %class.CryptData, ptr %14, i32 0, i32 8
  %30 = getelementptr inbounds [256 x i8], ptr %29, i64 0, i64 0
  call void @llvm.memcpy.p0.p0.i64(ptr align 8 %30, ptr align 16 @_ZL16InitSubstTable20, i64 256, i1 false)
  store i32 0, ptr %7, align 4
  br label %31

31:                                               ; preds = %99, %2
  %32 = load i32, ptr %7, align 4
  %33 = icmp ult i32 %32, 256
  br i1 %33, label %34, label %102

34:                                               ; preds = %31
  store i64 0, ptr %8, align 8
  br label %35

35:                                               ; preds = %95, %34
  %36 = load i64, ptr %8, align 8
  %37 = load i64, ptr %6, align 8
  %38 = icmp ult i64 %36, %37
  br i1 %38, label %39, label %98

39:                                               ; preds = %35
  %40 = getelementptr inbounds %class.CryptData, ptr %14, i32 0, i32 7
  %41 = load ptr, ptr %4, align 8
  %42 = load i64, ptr %8, align 8
  %43 = getelementptr inbounds i8, ptr %41, i64 %42
  %44 = load i8, ptr %43, align 1
  %45 = zext i8 %44 to i32
  %46 = load i32, ptr %7, align 4
  %47 = sub i32 %45, %46
  %48 = and i32 %47, 255
  %49 = zext i32 %48 to i64
  %50 = getelementptr inbounds [256 x i32], ptr %40, i64 0, i64 %49
  %51 = load i32, ptr %50, align 4
  %52 = trunc i32 %51 to i8
  %53 = zext i8 %52 to i32
  store i32 %53, ptr %9, align 4
  %54 = getelementptr inbounds %class.CryptData, ptr %14, i32 0, i32 7
  %55 = load ptr, ptr %4, align 8
  %56 = load i64, ptr %8, align 8
  %57 = add i64 %56, 1
  %58 = getelementptr inbounds i8, ptr %55, i64 %57
  %59 = load i8, ptr %58, align 1
  %60 = zext i8 %59 to i32
  %61 = load i32, ptr %7, align 4
  %62 = add i32 %60, %61
  %63 = and i32 %62, 255
  %64 = zext i32 %63 to i64
  %65 = getelementptr inbounds [256 x i32], ptr %54, i64 0, i64 %64
  %66 = load i32, ptr %65, align 4
  %67 = trunc i32 %66 to i8
  %68 = zext i8 %67 to i32
  store i32 %68, ptr %10, align 4
  store i32 1, ptr %11, align 4
  br label %69

69:                                               ; preds = %88, %39
  %70 = load i32, ptr %9, align 4
  %71 = load i32, ptr %10, align 4
  %72 = icmp ne i32 %70, %71
  br i1 %72, label %73, label %94

73:                                               ; preds = %69
  %74 = getelementptr inbounds %class.CryptData, ptr %14, i32 0, i32 8
  %75 = load i32, ptr %9, align 4
  %76 = zext i32 %75 to i64
  %77 = getelementptr inbounds [256 x i8], ptr %74, i64 0, i64 %76
  %78 = getelementptr inbounds %class.CryptData, ptr %14, i32 0, i32 8
  %79 = load i32, ptr %9, align 4
  %80 = zext i32 %79 to i64
  %81 = load i64, ptr %8, align 8
  %82 = add i64 %80, %81
  %83 = load i32, ptr %11, align 4
  %84 = sext i32 %83 to i64
  %85 = add i64 %82, %84
  %86 = and i64 %85, 255
  %87 = getelementptr inbounds [256 x i8], ptr %78, i64 0, i64 %86
  call void @_ZN9CryptData6Swap20EPhS0_(ptr noundef nonnull align 8 dereferenceable(2516) %14, ptr noundef %77, ptr noundef %87)
  br label %88

88:                                               ; preds = %73
  %89 = load i32, ptr %9, align 4
  %90 = add i32 %89, 1
  %91 = and i32 %90, 255
  store i32 %91, ptr %9, align 4
  %92 = load i32, ptr %11, align 4
  %93 = add nsw i32 %92, 1
  store i32 %93, ptr %11, align 4
  br label %69, !llvm.loop !9

94:                                               ; preds = %69
  br label %95

95:                                               ; preds = %94
  %96 = load i64, ptr %8, align 8
  %97 = add i64 %96, 2
  store i64 %97, ptr %8, align 8
  br label %35, !llvm.loop !10

98:                                               ; preds = %35
  br label %99

99:                                               ; preds = %98
  %100 = load i32, ptr %7, align 4
  %101 = add i32 %100, 1
  store i32 %101, ptr %7, align 4
  br label %31, !llvm.loop !11

102:                                              ; preds = %31
  %103 = load i64, ptr %6, align 8
  %104 = and i64 %103, 15
  %105 = icmp ne i64 %104, 0
  br i1 %105, label %106, label %120

106:                                              ; preds = %102
  %107 = load i64, ptr %6, align 8
  store i64 %107, ptr %12, align 8
  br label %108

108:                                              ; preds = %116, %106
  %109 = load i64, ptr %12, align 8
  %110 = load i64, ptr %6, align 8
  %111 = or i64 %110, 15
  %112 = icmp ule i64 %109, %111
  br i1 %112, label %113, label %119

113:                                              ; preds = %108
  %114 = load i64, ptr %12, align 8
  %115 = getelementptr inbounds [512 x i8], ptr %5, i64 0, i64 %114
  store i8 0, ptr %115, align 1
  br label %116

116:                                              ; preds = %113
  %117 = load i64, ptr %12, align 8
  %118 = add i64 %117, 1
  store i64 %118, ptr %12, align 8
  br label %108, !llvm.loop !12

119:                                              ; preds = %108
  br label %120

120:                                              ; preds = %119, %102
  store i64 0, ptr %13, align 8
  br label %121

121:                                              ; preds = %129, %120
  %122 = load i64, ptr %13, align 8
  %123 = load i64, ptr %6, align 8
  %124 = icmp ult i64 %122, %123
  br i1 %124, label %125, label %132

125:                                              ; preds = %121
  %126 = getelementptr inbounds [512 x i8], ptr %5, i64 0, i64 0
  %127 = load i64, ptr %13, align 8
  %128 = getelementptr inbounds i8, ptr %126, i64 %127
  call void @_ZN9CryptData14EncryptBlock20EPh(ptr noundef nonnull align 8 dereferenceable(2516) %14, ptr noundef %128)
  br label %129

129:                                              ; preds = %125
  %130 = load i64, ptr %13, align 8
  %131 = add i64 %130, 16
  store i64 %131, ptr %13, align 8
  br label %121, !llvm.loop !13

132:                                              ; preds = %121
  ret void
}