; Function Attrs: mustprogress uwtable
define void @_ZN9CryptData8SetKey20EPKc(ptr noundef nonnull align 8 dereferenceable(2516) %0, ptr noundef %1) local_unnamed_addr #1 align 2 {
  %3 = alloca [512 x i8], align 16
  %4 = getelementptr inbounds nuw i8, ptr %0, i64 1208
  tail call void @_Z9InitCRC32Pj(ptr noundef nonnull %4)
  call void @_Z8strncpyzPcPKcm(ptr noundef nonnull %3, ptr noundef %1, i64 noundef 512)
  %5 = call i64 @strlen(ptr noundef nonnull dereferenceable(1) %3) #19
  %6 = getelementptr inbounds nuw i8, ptr %0, i64 2488
  store i32 -744245127, ptr %6, align 8
  %7 = getelementptr inbounds nuw i8, ptr %0, i64 2492
  store i32 1064112887, ptr %7, align 4
  %8 = getelementptr inbounds nuw i8, ptr %0, i64 2496
  store i32 1964352053, ptr %8, align 8
  %9 = getelementptr inbounds nuw i8, ptr %0, i64 2500
  store i32 -1528303325, ptr %9, align 4
  %10 = getelementptr inbounds nuw i8, ptr %0, i64 2232
  call void @llvm.memcpy.p0.p0.i64(ptr noundef nonnull align 8 dereferenceable(256) %10, ptr noundef nonnull align 16 dereferenceable(256) @_ZL16InitSubstTable20, i64 256, i1 false)
  %.not52 = icmp eq i64 %5, 0
  br i1 %.not52, label %._crit_edge, label %.preheader39.us

.preheader39.us:                                  ; preds = %2, %._crit_edge46.us
  %.03247.us = phi i32 [ %35, %._crit_edge46.us ], [ 0, %2 ]
  %.032.tr.us = trunc nuw i32 %.03247.us to i8
  br label %11

11:                                               ; preds = %.preheader39.us, %._crit_edge.us
  %.03444.us = phi i64 [ 0, %.preheader39.us ], [ %33, %._crit_edge.us ]
  %12 = getelementptr inbounds i8, ptr %1, i64 %.03444.us
  %13 = load i8, ptr %12, align 1
  %.narrow.us = sub i8 %13, %.032.tr.us
  %14 = zext i8 %.narrow.us to i64
  %15 = getelementptr inbounds nuw [256 x i32], ptr %4, i64 0, i64 %14
  %16 = load i32, ptr %15, align 4
  %17 = or disjoint i64 %.03444.us, 1
  %18 = getelementptr inbounds i8, ptr %1, i64 %17
  %19 = load i8, ptr %18, align 1
  %.narrow37.us = add i8 %19, %.032.tr.us
  %20 = zext i8 %.narrow37.us to i64
  %21 = getelementptr inbounds nuw [256 x i32], ptr %4, i64 0, i64 %20
  %22 = load i32, ptr %21, align 4
  %23 = and i32 %22, 255
  %.03340.us = and i32 %16, 255
  %.not3841.us = icmp eq i32 %.03340.us, %23
  br i1 %.not3841.us, label %._crit_edge.us, label %.lr.ph.us

.lr.ph.us:                                        ; preds = %11, %.lr.ph.us
  %indvars.iv = phi i64 [ %indvars.iv.next, %.lr.ph.us ], [ 1, %11 ]
  %.03343.us = phi i32 [ %.033.us, %.lr.ph.us ], [ %.03340.us, %11 ]
  %24 = zext nneg i32 %.03343.us to i64
  %25 = getelementptr inbounds nuw [256 x i8], ptr %10, i64 0, i64 %24
  %26 = add i64 %.03444.us, %24
  %27 = add i64 %26, %indvars.iv
  %28 = and i64 %27, 255
  %29 = getelementptr inbounds nuw [256 x i8], ptr %10, i64 0, i64 %28
  %30 = load i8, ptr %25, align 1
  %31 = load i8, ptr %29, align 1
  store i8 %31, ptr %25, align 1
  store i8 %30, ptr %29, align 1
  %32 = add nuw nsw i32 %.03343.us, 1
  %indvars.iv.next = add nuw nsw i64 %indvars.iv, 1
  %.033.us = and i32 %32, 255
  %.not38.us = icmp eq i32 %.033.us, %23
  br i1 %.not38.us, label %._crit_edge.us, label %.lr.ph.us, !llvm.loop !9

._crit_edge.us:                                   ; preds = %.lr.ph.us, %11
  %33 = add nuw i64 %.03444.us, 2
  %34 = icmp ult i64 %33, %5
  br i1 %34, label %11, label %._crit_edge46.us, !llvm.loop !10

._crit_edge46.us:                                 ; preds = %._crit_edge.us
  %35 = add nuw nsw i32 %.03247.us, 1
  %exitcond.not = icmp eq i32 %35, 256
  br i1 %exitcond.not, label %.split49.us, label %.preheader39.us, !llvm.loop !11

.split49.us:                                      ; preds = %._crit_edge46.us
  %36 = and i64 %5, 15
  %.not = icmp eq i64 %36, 0
  br i1 %.not, label %.lr.ph.preheader, label %.loopexit.thread57

.loopexit.thread57:                               ; preds = %.split49.us
  %37 = or i64 %5, 15
  %scevgep = getelementptr i8, ptr %3, i64 %5
  %38 = add i64 %5, 1
  %39 = add i64 %37, 1
  %umax = call i64 @llvm.umax.i64(i64 %38, i64 %39)
  %40 = sub i64 %umax, %5
  call void @llvm.memset.p0.i64(ptr align 1 %scevgep, i8 0, i64 %40, i1 false)
  br label %.lr.ph.preheader

.lr.ph.preheader:                                 ; preds = %.split49.us, %.loopexit.thread57
  br label %.lr.ph

.lr.ph:                                           ; preds = %.lr.ph.preheader, %.lr.ph
  %.051 = phi i64 [ %42, %.lr.ph ], [ 0, %.lr.ph.preheader ]
  %41 = getelementptr inbounds i8, ptr %3, i64 %.051
  call void @_ZN9CryptData14EncryptBlock20EPh(ptr noundef nonnull align 8 dereferenceable(2516) %0, ptr noundef nonnull %41)
  %42 = add i64 %.051, 16
  %43 = icmp ult i64 %42, %5
  br i1 %43, label %.lr.ph, label %._crit_edge, !llvm.loop !12

._crit_edge:                                      ; preds = %.lr.ph, %2
  ret void
}